; ModuleID = '31/68.c'
source_filename = "31/68.c"
target datalayout = "e-m:e-p270:32:32-p271:32:32-p272:64:64-i64:64-f80:128-n8:16:32:64-S128"
target triple = "x86_64-pc-linux-gnu"

%struct.stu = type { [10 x i8], [20 x i8], i8, i32, [20 x i8], [20 x i8], %struct.stu* }

@.str = private unnamed_addr constant [4 x i8] c"end\00", align 1
@.str.1 = private unnamed_addr constant [3 x i8] c"%s\00", align 1
@.str.2 = private unnamed_addr constant [16 x i8] c" %s %c %d %s %s\00", align 1
@.str.3 = private unnamed_addr constant [19 x i8] c"%s %s %c %d %s %s\0A\00", align 1

; Function Attrs: noinline nounwind uwtable
define dso_local %struct.stu* @creat() #0 {
  %1 = alloca %struct.stu*, align 8
  %2 = alloca %struct.stu*, align 8
  %3 = alloca %struct.stu*, align 8
  %4 = alloca i32, align 4
  store i32 0, i32* %4, align 4
  %5 = call noalias i8* @malloc(i64 88) #4
  %6 = bitcast i8* %5 to %struct.stu*
  store %struct.stu* %6, %struct.stu** %3, align 8
  store %struct.stu* %6, %struct.stu** %2, align 8
  store %struct.stu* null, %struct.stu** %1, align 8
  br label %7

7:                                                ; preds = %40, %0
  %8 = load %struct.stu*, %struct.stu** %2, align 8
  %9 = getelementptr inbounds %struct.stu, %struct.stu* %8, i32 0, i32 0
  %10 = getelementptr inbounds [10 x i8], [10 x i8]* %9, i64 0, i64 0
  %11 = call i32 @strcmp(i8* %10, i8* getelementptr inbounds ([4 x i8], [4 x i8]* @.str, i64 0, i64 0)) #5
  %12 = icmp ne i32 %11, 0
  br i1 %12, label %13, label %52

13:                                               ; preds = %7
  %14 = load i32, i32* %4, align 4
  %15 = add nsw i32 %14, 1
  store i32 %15, i32* %4, align 4
  %16 = load i32, i32* %4, align 4
  %17 = icmp eq i32 %16, 1
  br i1 %17, label %18, label %22

18:                                               ; preds = %13
  %19 = load %struct.stu*, %struct.stu** %2, align 8
  %20 = getelementptr inbounds %struct.stu, %struct.stu* %19, i32 0, i32 6
  store %struct.stu* null, %struct.stu** %20, align 8
  %21 = load %struct.stu*, %struct.stu** %2, align 8
  store %struct.stu* %21, %struct.stu** %1, align 8
  br label %29

22:                                               ; preds = %13
  %23 = load %struct.stu*, %struct.stu** %2, align 8
  store %struct.stu* %23, %struct.stu** %3, align 8
  %24 = call noalias i8* @malloc(i64 88) #4
  %25 = bitcast i8* %24 to %struct.stu*
  store %struct.stu* %25, %struct.stu** %2, align 8
  %26 = load %struct.stu*, %struct.stu** %3, align 8
  %27 = load %struct.stu*, %struct.stu** %2, align 8
  %28 = getelementptr inbounds %struct.stu, %struct.stu* %27, i32 0, i32 6
  store %struct.stu* %26, %struct.stu** %28, align 8
  br label %29

29:                                               ; preds = %22, %18
  %30 = load %struct.stu*, %struct.stu** %2, align 8
  %31 = getelementptr inbounds %struct.stu, %struct.stu* %30, i32 0, i32 0
  %32 = call i32 (i8*, ...) @__isoc99_scanf(i8* getelementptr inbounds ([3 x i8], [3 x i8]* @.str.1, i64 0, i64 0), [10 x i8]* %31)
  %33 = load %struct.stu*, %struct.stu** %2, align 8
  %34 = getelementptr inbounds %struct.stu, %struct.stu* %33, i32 0, i32 0
  %35 = getelementptr inbounds [10 x i8], [10 x i8]* %34, i64 0, i64 0
  %36 = call i32 @strcmp(i8* %35, i8* getelementptr inbounds ([4 x i8], [4 x i8]* @.str, i64 0, i64 0)) #5
  %37 = icmp eq i32 %36, 0
  br i1 %37, label %38, label %40

38:                                               ; preds = %29
  %39 = load %struct.stu*, %struct.stu** %3, align 8
  store %struct.stu* %39, %struct.stu** %1, align 8
  br label %52

40:                                               ; preds = %29
  %41 = load %struct.stu*, %struct.stu** %2, align 8
  %42 = getelementptr inbounds %struct.stu, %struct.stu* %41, i32 0, i32 1
  %43 = load %struct.stu*, %struct.stu** %2, align 8
  %44 = getelementptr inbounds %struct.stu, %struct.stu* %43, i32 0, i32 2
  %45 = load %struct.stu*, %struct.stu** %2, align 8
  %46 = getelementptr inbounds %struct.stu, %struct.stu* %45, i32 0, i32 3
  %47 = load %struct.stu*, %struct.stu** %2, align 8
  %48 = getelementptr inbounds %struct.stu, %struct.stu* %47, i32 0, i32 4
  %49 = load %struct.stu*, %struct.stu** %2, align 8
  %50 = getelementptr inbounds %struct.stu, %struct.stu* %49, i32 0, i32 5
  %51 = call i32 (i8*, ...) @__isoc99_scanf(i8* getelementptr inbounds ([16 x i8], [16 x i8]* @.str.2, i64 0, i64 0), [20 x i8]* %42, i8* %44, i32* %46, [20 x i8]* %48, [20 x i8]* %50)
  br label %7

52:                                               ; preds = %38, %7
  %53 = load %struct.stu*, %struct.stu** %1, align 8
  ret %struct.stu* %53
}

; Function Attrs: nounwind
declare dso_local noalias i8* @malloc(i64) #1

; Function Attrs: nounwind readonly
declare dso_local i32 @strcmp(i8*, i8*) #2

declare dso_local i32 @__isoc99_scanf(i8*, ...) #3

; Function Attrs: noinline nounwind uwtable
define dso_local void @print(%struct.stu* %0) #0 {
  %2 = alloca %struct.stu*, align 8
  %3 = alloca %struct.stu*, align 8
  store %struct.stu* %0, %struct.stu** %2, align 8
  %4 = load %struct.stu*, %struct.stu** %2, align 8
  store %struct.stu* %4, %struct.stu** %3, align 8
  br label %5

5:                                                ; preds = %8, %1
  %6 = load %struct.stu*, %struct.stu** %3, align 8
  %7 = icmp ne %struct.stu* %6, null
  br i1 %7, label %8, label %32

8:                                                ; preds = %5
  %9 = load %struct.stu*, %struct.stu** %3, align 8
  %10 = getelementptr inbounds %struct.stu, %struct.stu* %9, i32 0, i32 0
  %11 = getelementptr inbounds [10 x i8], [10 x i8]* %10, i64 0, i64 0
  %12 = load %struct.stu*, %struct.stu** %3, align 8
  %13 = getelementptr inbounds %struct.stu, %struct.stu* %12, i32 0, i32 1
  %14 = getelementptr inbounds [20 x i8], [20 x i8]* %13, i64 0, i64 0
  %15 = load %struct.stu*, %struct.stu** %3, align 8
  %16 = getelementptr inbounds %struct.stu, %struct.stu* %15, i32 0, i32 2
  %17 = load i8, i8* %16, align 2
  %18 = sext i8 %17 to i32
  %19 = load %struct.stu*, %struct.stu** %3, align 8
  %20 = getelementptr inbounds %struct.stu, %struct.stu* %19, i32 0, i32 3
  %21 = load i32, i32* %20, align 8
  %22 = load %struct.stu*, %struct.stu** %3, align 8
  %23 = getelementptr inbounds %struct.stu, %struct.stu* %22, i32 0, i32 4
  %24 = getelementptr inbounds [20 x i8], [20 x i8]* %23, i64 0, i64 0
  %25 = load %struct.stu*, %struct.stu** %3, align 8
  %26 = getelementptr inbounds %struct.stu, %struct.stu* %25, i32 0, i32 5
  %27 = getelementptr inbounds [20 x i8], [20 x i8]* %26, i64 0, i64 0
  %28 = call i32 (i8*, ...) @printf(i8* getelementptr inbounds ([19 x i8], [19 x i8]* @.str.3, i64 0, i64 0), i8* %11, i8* %14, i32 %18, i32 %21, i8* %24, i8* %27)
  %29 = load %struct.stu*, %struct.stu** %3, align 8
  %30 = getelementptr inbounds %struct.stu, %struct.stu* %29, i32 0, i32 6
  %31 = load %struct.stu*, %struct.stu** %30, align 8
  store %struct.stu* %31, %struct.stu** %3, align 8
  br label %5

32:                                               ; preds = %5
  ret void
}

declare dso_local i32 @printf(i8*, ...) #3

; Function Attrs: noinline nounwind uwtable
define dso_local void @main() #0 {
  %1 = alloca %struct.stu*, align 8
  %2 = call %struct.stu* @creat()
  store %struct.stu* %2, %struct.stu** %1, align 8
  %3 = load %struct.stu*, %struct.stu** %1, align 8
  call void @print(%struct.stu* %3)
  ret void
}


!llvm.module.flags = !{!0}
!llvm.ident = !{!1}

!0 = !{i32 1, !"wchar_size", i32 4}
!1 = !{!"clang version 10.0.0-4ubuntu1 "}
