; ModuleID = 'source-C-CXX/30/68.c'
source_filename = "source-C-CXX/30/68.c"
target datalayout = "e-m:e-p270:32:32-p271:32:32-p272:64:64-i64:64-f80:128-n8:16:32:64-S128"
target triple = "x86_64-pc-linux-gnu"

%struct.stu = type { [10 x i8], [20 x i8], i8, i32, [20 x i8], [20 x i8], %struct.stu* }

@.str = private unnamed_addr constant [4 x i8] c"end\00", align 1
@.str.1 = private unnamed_addr constant [3 x i8] c"%s\00", align 1
@.str.2 = private unnamed_addr constant [16 x i8] c" %s %c %d %s %s\00", align 1
@.str.3 = private unnamed_addr constant [19 x i8] c"%s %s %c %d %s %s\0A\00", align 1

; Function Attrs: nofree nounwind sspstrong uwtable
define dso_local %struct.stu* @creat() local_unnamed_addr #0 {
  %1 = tail call noalias align 16 dereferenceable_or_null(88) i8* @malloc(i64 88) #4
  %2 = bitcast i8* %1 to %struct.stu*
  %3 = getelementptr inbounds %struct.stu, %struct.stu* %2, i64 0, i32 0, i64 0
  %4 = tail call i32 @strcmp(i8* noundef nonnull dereferenceable(1) %3, i8* noundef nonnull dereferenceable(4) getelementptr inbounds ([4 x i8], [4 x i8]* @.str, i64 0, i64 0)) #5
  %5 = icmp eq i32 %4, 0
  br i1 %5, label %37, label %6

6:                                                ; preds = %0, %28
  %7 = phi i32 [ %11, %28 ], [ 0, %0 ]
  %8 = phi %struct.stu* [ %22, %28 ], [ %2, %0 ]
  %9 = phi %struct.stu* [ %21, %28 ], [ %2, %0 ]
  %10 = phi %struct.stu* [ %20, %28 ], [ null, %0 ]
  %11 = add nuw nsw i32 %7, 1
  %12 = icmp eq i32 %7, 0
  br i1 %12, label %13, label %15

13:                                               ; preds = %6
  %14 = getelementptr inbounds %struct.stu, %struct.stu* %9, i64 0, i32 6
  store %struct.stu* null, %struct.stu** %14, align 8, !tbaa !5
  br label %19

15:                                               ; preds = %6
  %16 = tail call noalias align 16 dereferenceable_or_null(88) i8* @malloc(i64 88) #4
  %17 = bitcast i8* %16 to %struct.stu*
  %18 = getelementptr inbounds %struct.stu, %struct.stu* %17, i64 0, i32 6
  store %struct.stu* %9, %struct.stu** %18, align 16, !tbaa !5
  br label %19

19:                                               ; preds = %15, %13
  %20 = phi %struct.stu* [ %9, %13 ], [ %10, %15 ]
  %21 = phi %struct.stu* [ %9, %13 ], [ %17, %15 ]
  %22 = phi %struct.stu* [ %8, %13 ], [ %9, %15 ]
  %23 = getelementptr inbounds %struct.stu, %struct.stu* %21, i64 0, i32 0
  %24 = tail call i32 (i8*, ...) @__isoc99_scanf(i8* getelementptr inbounds ([3 x i8], [3 x i8]* @.str.1, i64 0, i64 0), [10 x i8]* %23)
  %25 = getelementptr inbounds %struct.stu, %struct.stu* %21, i64 0, i32 0, i64 0
  %26 = tail call i32 @strcmp(i8* noundef nonnull dereferenceable(1) %25, i8* noundef nonnull dereferenceable(4) getelementptr inbounds ([4 x i8], [4 x i8]* @.str, i64 0, i64 0)) #5
  %27 = icmp eq i32 %26, 0
  br i1 %27, label %37, label %28

28:                                               ; preds = %19
  %29 = getelementptr inbounds %struct.stu, %struct.stu* %21, i64 0, i32 1
  %30 = getelementptr inbounds %struct.stu, %struct.stu* %21, i64 0, i32 2
  %31 = getelementptr inbounds %struct.stu, %struct.stu* %21, i64 0, i32 3
  %32 = getelementptr inbounds %struct.stu, %struct.stu* %21, i64 0, i32 4
  %33 = getelementptr inbounds %struct.stu, %struct.stu* %21, i64 0, i32 5
  %34 = tail call i32 (i8*, ...) @__isoc99_scanf(i8* getelementptr inbounds ([16 x i8], [16 x i8]* @.str.2, i64 0, i64 0), [20 x i8]* nonnull %29, i8* nonnull %30, i32* nonnull %31, [20 x i8]* nonnull %32, [20 x i8]* nonnull %33)
  %35 = tail call i32 @strcmp(i8* noundef nonnull dereferenceable(1) %25, i8* noundef nonnull dereferenceable(4) getelementptr inbounds ([4 x i8], [4 x i8]* @.str, i64 0, i64 0)) #5
  %36 = icmp eq i32 %35, 0
  br i1 %36, label %37, label %6, !llvm.loop !11

37:                                               ; preds = %28, %19, %0
  %38 = phi %struct.stu* [ null, %0 ], [ %22, %19 ], [ %20, %28 ]
  ret %struct.stu* %38
}

; Function Attrs: inaccessiblememonly mustprogress nofree nounwind willreturn
declare noalias noundef align 16 i8* @malloc(i64 noundef) local_unnamed_addr #1

; Function Attrs: argmemonly mustprogress nofree nounwind readonly willreturn
declare i32 @strcmp(i8* nocapture, i8* nocapture) local_unnamed_addr #2

; Function Attrs: nofree nounwind
declare noundef i32 @__isoc99_scanf(i8* nocapture noundef readonly, ...) local_unnamed_addr #3

; Function Attrs: nofree nounwind sspstrong uwtable
define dso_local void @print(%struct.stu* %0) local_unnamed_addr #0 {
  %2 = icmp eq %struct.stu* %0, null
  br i1 %2, label %18, label %3

3:                                                ; preds = %1, %3
  %4 = phi %struct.stu* [ %16, %3 ], [ %0, %1 ]
  %5 = getelementptr inbounds %struct.stu, %struct.stu* %4, i64 0, i32 0, i64 0
  %6 = getelementptr inbounds %struct.stu, %struct.stu* %4, i64 0, i32 1, i64 0
  %7 = getelementptr inbounds %struct.stu, %struct.stu* %4, i64 0, i32 2
  %8 = load i8, i8* %7, align 2, !tbaa !13
  %9 = sext i8 %8 to i32
  %10 = getelementptr inbounds %struct.stu, %struct.stu* %4, i64 0, i32 3
  %11 = load i32, i32* %10, align 8, !tbaa !14
  %12 = getelementptr inbounds %struct.stu, %struct.stu* %4, i64 0, i32 4, i64 0
  %13 = getelementptr inbounds %struct.stu, %struct.stu* %4, i64 0, i32 5, i64 0
  %14 = tail call i32 (i8*, ...) @printf(i8* nonnull dereferenceable(1) getelementptr inbounds ([19 x i8], [19 x i8]* @.str.3, i64 0, i64 0), i8* nonnull %5, i8* nonnull %6, i32 %9, i32 %11, i8* nonnull %12, i8* nonnull %13)
  %15 = getelementptr inbounds %struct.stu, %struct.stu* %4, i64 0, i32 6
  %16 = load %struct.stu*, %struct.stu** %15, align 8, !tbaa !5
  %17 = icmp eq %struct.stu* %16, null
  br i1 %17, label %18, label %3, !llvm.loop !15

18:                                               ; preds = %3, %1
  ret void
}

; Function Attrs: nofree nounwind
declare noundef i32 @printf(i8* nocapture noundef readonly, ...) local_unnamed_addr #3

; Function Attrs: nofree nounwind sspstrong uwtable
define dso_local void @main() local_unnamed_addr #0 {
  %1 = tail call %struct.stu* @creat()
  %2 = icmp eq %struct.stu* %1, null
  br i1 %2, label %18, label %3

3:                                                ; preds = %0, %3
  %4 = phi %struct.stu* [ %16, %3 ], [ %1, %0 ]
  %5 = getelementptr inbounds %struct.stu, %struct.stu* %4, i64 0, i32 0, i64 0
  %6 = getelementptr inbounds %struct.stu, %struct.stu* %4, i64 0, i32 1, i64 0
  %7 = getelementptr inbounds %struct.stu, %struct.stu* %4, i64 0, i32 2
  %8 = load i8, i8* %7, align 2, !tbaa !13
  %9 = sext i8 %8 to i32
  %10 = getelementptr inbounds %struct.stu, %struct.stu* %4, i64 0, i32 3
  %11 = load i32, i32* %10, align 8, !tbaa !14
  %12 = getelementptr inbounds %struct.stu, %struct.stu* %4, i64 0, i32 4, i64 0
  %13 = getelementptr inbounds %struct.stu, %struct.stu* %4, i64 0, i32 5, i64 0
  %14 = tail call i32 (i8*, ...) @printf(i8* nonnull dereferenceable(1) getelementptr inbounds ([19 x i8], [19 x i8]* @.str.3, i64 0, i64 0), i8* nonnull %5, i8* nonnull %6, i32 %9, i32 %11, i8* nonnull %12, i8* nonnull %13) #4
  %15 = getelementptr inbounds %struct.stu, %struct.stu* %4, i64 0, i32 6
  %16 = load %struct.stu*, %struct.stu** %15, align 8, !tbaa !5
  %17 = icmp eq %struct.stu* %16, null
  br i1 %17, label %18, label %3, !llvm.loop !15

18:                                               ; preds = %3, %0
  ret void
}


!llvm.module.flags = !{!0, !1, !2, !3}
!llvm.ident = !{!4}

!0 = !{i32 1, !"wchar_size", i32 4}
!1 = !{i32 7, !"PIC Level", i32 2}
!2 = !{i32 7, !"PIE Level", i32 2}
!3 = !{i32 7, !"uwtable", i32 1}
!4 = !{!"clang version 13.0.0"}
!5 = !{!6, !10, i64 80}
!6 = !{!"stu", !7, i64 0, !7, i64 10, !7, i64 30, !9, i64 32, !7, i64 36, !7, i64 56, !10, i64 80}
!7 = !{!"omnipotent char", !8, i64 0}
!8 = !{!"Simple C/C++ TBAA"}
!9 = !{!"int", !7, i64 0}
!10 = !{!"any pointer", !7, i64 0}
!11 = distinct !{!11, !12}
!12 = !{!"llvm.loop.mustprogress"}
!13 = !{!6, !7, i64 30}
!14 = !{!6, !9, i64 32}
!15 = distinct !{!15, !12}
